target datalayout = "e-m:e-p270:32:32-p271:32:32-p272:64:64-i64:64-i128:128-f80:128-n8:16:32:64-S128"
target triple = "x86_64-pc-linux-gnu"

; Function Attrs: mustprogress nounwind uwtable
define linkonce_odr hidden noundef ptr @_ZNK17NativeInstruction7addr_atEi(ptr noundef nonnull align 1 dereferenceable(1) %0, i32 noundef %1) #1 comdat align 2 {
  %3 = alloca ptr, align 8
  %4 = alloca i32, align 4
  store ptr %0, ptr %3, align 8
  store i32 %1, ptr %4, align 4
  %5 = load ptr, ptr %3, align 8
  %6 = load i32, ptr %4, align 4
  %7 = sext i32 %6 to i64
  %8 = getelementptr inbounds i8, ptr %5, i64 %7
  ret ptr %8
}

; Function Attrs: mustprogress nounwind uwtable
define hidden noundef zeroext i1 @_ZN17NativePostCallNop5patchEii(ptr noundef nonnull align 1 dereferenceable(1) %0, i32 noundef %1, i32 noundef %2) #1 align 2 {
  %4 = alloca i1, align 1
  %5 = alloca ptr, align 8
  %6 = alloca i32, align 4
  %7 = alloca i32, align 4
  %8 = alloca i32, align 4
  %9 = alloca ptr, align 8
  store ptr %0, ptr %5, align 8
  store i32 %1, ptr %6, align 4
  store i32 %2, ptr %7, align 4
  %10 = load ptr, ptr %5, align 8
  %11 = load i32, ptr %6, align 4
  %12 = and i32 %11, 255
  %13 = load i32, ptr %6, align 4
  %14 = icmp ne i32 %12, %13
  br i1 %14, label %20, label %15

15:                                               ; preds = %3
  %16 = load i32, ptr %7, align 4
  %17 = and i32 %16, 16777215
  %18 = load i32, ptr %7, align 4
  %19 = icmp ne i32 %17, %18
  br i1 %19, label %20, label %21

20:                                               ; preds = %15, %3
  store i1 false, ptr %4, align 1
  br label %29

21:                                               ; preds = %15
  %22 = load i32, ptr %6, align 4
  %23 = shl i32 %22, 24
  %24 = load i32, ptr %7, align 4
  %25 = or i32 %23, %24
  store i32 %25, ptr %8, align 4
  %26 = call noundef ptr @_ZNK17NativeInstruction7addr_atEi(ptr noundef nonnull align 1 dereferenceable(1) %10, i32 noundef 4)
  store ptr %26, ptr %9, align 8
  %27 = load i32, ptr %8, align 4
  %28 = load ptr, ptr %9, align 8
  store i32 %27, ptr %28, align 4
  store i1 true, ptr %4, align 1
  br label %29

29:                                               ; preds = %21, %20
  %30 = load i1, ptr %4, align 1
  ret i1 %30
}