; Function Attrs: mustprogress nofree norecurse nosync nounwind willreturn memory(argmem: write) uwtable
define hidden noundef zeroext i1 @_ZN17NativePostCallNop5patchEii(ptr nocapture noundef nonnull writeonly align 1 dereferenceable(1) %0, i32 noundef %1, i32 noundef %2) local_unnamed_addr #5 align 2 {
  %.not = icmp ult i32 %1, 256
  %.not11 = icmp ult i32 %2, 16777216
  %or.cond = and i1 %.not, %.not11
  br i1 %or.cond, label %4, label %8

4:                                                ; preds = %3
  %5 = shl nuw i32 %1, 24
  %6 = or disjoint i32 %5, %2
  %7 = getelementptr inbounds i8, ptr %0, i64 4
  store i32 %6, ptr %7, align 4
  br label %8

8:                                                ; preds = %3, %4
  ret i1 %or.cond
}